(lp0
(lp1
F0.750982
aF0.46866
aF0.800846
aF0.331393
aF0.623918
aF0.71903
aF0.666091
aF0.540641
aF0.470818
aF0.362557
aF0.551471
aF0.644432
aF0.587373
aF0.461027
aF0.645741
aF0.651472
aF0.489468
aF0.620115
aF0.355022
aF0.520581
aF0.516017
aF0.455126
aF0.414725
aF0.389515
aF0.921321
aF0.785294
aF0.641278
aF0.628773
aF0.454011
aF0.369938
aF0.546547
aF0.575752
aF0.485308
aF0.786799
aF0.502077
aF0.713841
aF0.71903
aF0.813821
aF0.597921
aF0.247309
aF0.341932
aF0.525748
aF0.482515
aF0.296407
aF0.559077
aF0.587373
aF0.596507
aF0.680395
aF0.369938
aF0.729759
aF0.735524
aF0.651991
aF0.494619
aF0.52639
aF0.724181
aF0.482515
aF0.677908
aF0.772934
aF0.545618
aF0.588235
aF0.356921
aF0.627428
aF0.459926
aF0.387776
aF0.544378
aF0.65895
aF0.536878
aF0.441942
aF0.510752
aF0.44877
aF0.545618
aF0.571925
aF0.413092
aF0.378962
aF0.508431
aF0.616289
aF0.551777
aF0.677908
aF0.502077
aF0.44764
aF0.559077
aF0.585067
aF0.368106
aF0.77577
aF0.624188
aF0.416757
aF0.559077
aF0.438488
aF0.535933
aF0.593383
aF0.614367
aF0.577218
aF0.44877
aF0.774026
aF0.461027
aF0.855125
aF0.485308
aF0.534354
aF0.42914
aF0.44499
aF0.368106
aF0.46395
aF0.543136
aa(lp2
F0.65303
aF0.587222
aF0.653498
aF0.608508
aF0.602038
aF0.514589
aF0.435369
aF0.628587
aF0.940331
aF0.712874
aF0.548432
aF0.496803
aF0.621047
aF0.402205
aF0.575647
aF0.719112
aF0.618382
aF0.505593
aF0.935634
aF0.466704
aF0.438031
aF0.416406
aF0.406141
aF0.365044
aF0.808733
aF0.603662
aF0.707965
aF0.532009
aF0.858638
aF0.507646
aF0.608508
aF0.392816
aF1.01505
aF0.597345
aF0.619963
aF0.553208
aF0.571058
aF0.654994
aF0.658627
aF0.745102
aF0.47036
aF0.535106
aF0.721829
aF0.911722
aF0.538752
aF0.509931
aF0.565892
aF0.736845
aF0.367716
aF0.465785
aF0.440538
aF0.45797
aF0.443721
aF0.480272
aF0.568911
aF0.475792
aF0.657791
aF0.356737
aF0.660019
aF0.394836
aF0.400986
aF0.451241
aF0.465785
aF0.367716
aF0.436492
aF0.3878
aF1.256639
aF0.376269
aF0.34292
aF0.484963
aF0.455559
aF0.421662
aF0.389688
aF0.588886
aF0.470621
aF0.489983
aF0.628977
aF0.754243
aF0.457301
aF0.504502
aF0.489858
aF0.49975
aF0.476178
aF0.51077
aF0.603561
aF1.218071
aF0.535106
aF0.571058
aF0.503774
aF0.497788
aF0.442063
aF0.649271
aF0.666017
aF0.602749
aF0.480272
aF0.650401
aF0.511488
aF0.519912
aF0.507525
aF0.344522
aF0.383357
aF0.675413
aF0.76974
aF0.72479
aF0.875013
aF0.678396
aF0.703891
aF0.807522
aF1.007366
aF0.722338
aF0.431558
aF0.54485
aF0.39961
aF0.548432
aF0.79315
aF0.523196
aF0.454079
aF0.383357
aF0.369707
aF0.820451
aF0.776309
aF0.722422
aF0.664085
aF0.423544
aF0.297647
aF0.486851
aF0.387326
aF0.409292
aF0.343099
aF0.501583
aF0.442616
aF0.901532
aF0.520029
aF0.761027
aF0.398844
aF0.616797
aF0.77315
aF0.69699
aF0.574902
aa(lp3
F0.906547
aF0.846661
aF0.853763
aF0.985784
aF1.081672
aF0.790097
aF0.875489
aF0.806069
aF0.701013
aF0.861001
aF0.842491
aF1.164121
aF0.615668
aF1.015452
aF0.915934
aF0.701013
aF0.7257
aF2.163964
aF1.129311
aF0.47935
aF0.986294
aF0.803359
aF0.695971
aF0.820913
aF1.084459
aF1.037348
aF0.733058
aF1.183694
aF1.099054
aF0.556126
aF0.518027
aF0.681604
aF0.956072
aF0.77704
aF0.656537
aF1.303973
aF0.597979
aF0.876446
aF1.081982
aF1.251869
aF0.642071
aF0.985613
aF0.686508
aF0.953965
aF0.751809
aF1.017267
aF1.260414
aF0.978954
aF1.262807
aF1.057207
aF0.989011
aF0.508881
aF0.863918
aF0.846661
aF1.037348
aF0.946197
aF1.013964
aF1.325025
aF1.256816
aF0.851402
aF0.965151
aF0.868758
aF0.828236
aF0.533341
aF0.841893
aF1.153265
aF0.934245
aF1.13686
aF1.033623
aF0.480747
aF0.686508
aF0.691134
aF0.726393
aF0.73671
aF0.858465
aF0.738302
aF0.925588
aF1.206291
aF1.081982
aF1.024659
aF0.879312
aF1.112251
aF0.920318
aF0.790946
aF0.502913
aF0.823158
aF0.899116
aF0.925588
aF0.985613
aF0.697415
aF0.941399
aF0.73671
aF0.909502
aF0.630207
aF0.515756
aF0.721528
aF0.579172
aF0.567766
aF0.556126
aF0.828236
aF0.679633
aa(lp4
F1.112581
aF2.119715
aF2.125762
aF1.459555
aF2.015045
aF1.157152
aF1.785358
aF0.674834
aF1.504411
aF0.650622
aF1.507253
aF1.348876
aF1.504411
aF0.822422
aF0.781842
aF1.659458
aF0.804196
aF0.806662
aF1.134614
aF0.989733
aF0.751952
aF0.772403
aF0.843701
aF1.003228
aF0.828347
aF0.751952
aF1.468948
aF1.511404
aF1.605063
aF1.004446
aF1.583978
aF1.959602
aF1.840985
aF1.731122
aF2.077773
aF0.926573
aF1.316191
aF2.144087
aF1.96085
aF1.08448
aF0.70561
aF0.951955
aF0.82335
aF1.336012
aF1.232858
aF1.58253
aF0.769429
aF1.12229
aF0.908586
aF1.299482
aF0.972129
aF1.99982
aF0.991738
aF0.833496
aF1.094858
aF1.0434
aF1.331544
aF2.682584
aF1.065717
aF0.791555
aF0.772403
aF0.949866
aF1.383882
aF2.081815
aF0.751952
aF1.793556
aF1.790486
aF1.251558
aF1.703716
aF1.181849
aF1.266487
aF1.090242
aF2.064788
aF1.60125
aF1.216512
aF1.228885
aF1.276344
aF1.441645
aF1.31247
aF2.400268
aF1.539355
aF1.65457
aF1.565637
aF1.236201
aF0.925748
aF1.924348
aF1.248257
aF1.824391
aF1.544113
aF1.291578
aF2.068929
aF1.051279
aF1.409486
aF0.860204
aF0.674834
aF1.79006
aF1.102647
aF1.603253
aF1.807814
aF0.979645
aF1.899892
aF0.774181
aF0.85253
aF0.904541
aF0.967085
aF1.664516
aF1.293824
aF1.177704
aF0.773984
aF2.074829
aF1.091503
aF1.276344
aF1.867686
aF1.084057
aa(lp5
F0.922104
aF1.26426
aF0.778194
aF1.332657
aF1.555598
aF1.075125
aF1.204451
aF2.077497
aF1.689376
aF2.174112
aF1.184708
aF0.997732
aF0.783856
aF1.152651
aF0.864772
aF1.011913
aF1.086151
aF1.510731
aF0.988455
aF1.825329
aF0.647963
aF1.461299
aF0.66536
aF0.946817
aF0.76482
aF1.319969
aF0.748586
aF1.51195
aF1.206897
aF1.026017
aF0.620658
aF0.810968
aF1.650538
aF1.982433
aF1.156587
aF1.380735
aF1.929492
aF0.954184
aF1.542514
aF1.453038
aF0.753982
aF1.912804
aF1.153609
aF1.256365
aF1.088185
aF1.174712
aF1.640909
aF1.006191
aF2.355273
aF0.896574
aF0.786203
aF0.678341
aF2.302369
aF0.876202
aF1.130267
aF1.561824
aF1.693951
aF0.831312
aF0.854052
aF1.320062
aF1.228684
aF1.913638
aF1.050625
aF1.040285
aF1.205675
aF1.497173
aF0.754959
aF1.095498
aF0.971534
aF0.919971
aF0.982472
aF0.706025
aF1.621405
aF0.889144
aF0.752351
aF1.654005
aF1.309121
aF1.984581
aF0.998715
aF1.518619
aF1.811235
aF0.759309
aF1.332853
aF1.126877
aF1.662046
aF1.079181
aF0.832648
aF1.904338
aF1.863791
aF0.708745
aF1.921855
aF2.214562
aF1.368864
aF0.993289
aF2.711941
aF0.874443
aF1.614314
aF1.48624
aF1.26716
aF1.51196
aF1.694681
aF0.939981
aF1.392355
aF1.464749
aF1.149043
aF1.225526
aF2.437637
aF1.354309
aF1.264313
aF1.861857
aF1.106874
aF1.006264
aF1.044568
aF2.796589
aF1.006264
aF1.531143
aF0.664667
aF1.090144
aF1.316532
aF1.766312
aF1.237523
aF1.860889
aF1.186079
aF1.944966
aF0.937678
aF0.879374
aF1.557047
aF1.697867
aF1.337441
aF1.947928
aF1.67048
aF1.308845
aF1.090144
aF0.688108
aF1.853127
aF1.293057
aF0.972761
aF1.849234
aF1.491081
aF0.763568
aF1.790827
aF1.309121
aF1.589343
aF0.85948
aF1.59025
aF1.311321
aF0.927244
aF1.962671
aF2.000495
aF2.089136
aF0.879374
aF1.237523
aF1.132937
aa(lp6
F1.819521
aF3.705729
aF4.058808
aF1.813279
aF3.477495
aF4.3477
aF5.314593
aF3.53954
aF2.513005
aF1.980632
aF2.915281
aF4.573412
aF2.476648
aF3.928211
aF1.363602
aF1.470804
aF1.787459
aF1.515603
aF2.655162
aF3.574919
aF2.539931
aF1.25808
aF2.069649
aF2.121588
aF2.601238
aF2.911
aF1.483087
aF6.095424
aF4.536573
aF0.964212
aF8.47833
aF1.574312
aF1.58293
aF2.934276
aF2.581111
aF3.266333
aF1.921946
aF11.506185
aF1.487667
aF7.939111
aF1.866885
aF3.52381
aF2.164442
aF7.304209
aF3.095238
aF2.258268
aF2.559939
aF2.219783
aF3.207488
aF2.164442
aF3.579356
aF4.729653
aF4.00255
aF7.502078
aF1.380952
aF2.240121
aF2.067457
aF3.238795
aF2.074573
aF2.702564
aF2.451341
aF1.984635
aF2.443465
aF1.58293
aF2.687419
aF1.252662
aF1.682914
aF2.097401
aF2.005096
aF3.859494
aF2.256259
aF1.559842
aF7.392004
aF4.050139
aF2.171763
aF5.165075
aF4.177469
aF5.532423
aF6.544631
aF4.147507
aF1.938394
aF1.682914
aF4.255182
aF1.83812
aF2.144973
aF1.9892
aF3.042406
aF1.428571
aF1.653005
aF3.009433
aF3.960405
aF4.834916
aF4.108782
aF3.190832
aF3.833555
aF1.431743
aF2.368539
aF2.938909
aF5.104797
aF1.096273
aF3.139248
aF1.435697
aF2.350761
aF1.214052
aF5.366605
aF1.216851
aF3.037558
aF1.277753
aF14.597937
aF3.367849
aF4.479482
aF1.025746
aF2.232008
aF1.453746
aF2.223356
aF3.784741
aF1.300619
aF2.762315
aF3.095238
aF2.121588
aF3.079079
aF1.479259
aF11.667541
aF2.403701
aF1.289237
aF5.238961
aF1.214052
aF2.485787
aF3.066903
aF2.610375
aF5.190476
aF2.205949
aF2.065811
aF2.474816
aF2.898901
aF2.142857
aF1.703671
aF2.2477
aF10.104331
aF3.109856
aF1.289237
aF0.937986
aF3.077237
aF3.220189
aF3.770334
aF2.009614
aF5.682451
aF2.641033
aF2.038184
aF2.860712
aF2.256259
aF2.256259
aF2.714703
aF3.829116
aF2.887537
aF2.514358
aF1.56637
aF1.706995
aF1.767687
aa(lp7
F7.441163
aF1.592583
aF2.532557
aF2.237791
aF2.598596
aF6.479758
aF3.54828
aF2.318836
aF7.153516
aF3.676073
aF4.377025
aF3.212125
aF8.424266
aF4.567576
aF2.974338
aF3.694792
aF1.568836
aF3.471977
aF3.524469
aF7.439527
aF5.677284
aF3.453225
aF4.37517
aF5.223672
aF2.618818
aF4.505405
aF4.274535
aF4.41809
aF1.775141
aF3.82034
aF4.754547
aF1.477587
aF4.000649
aF2.538959
aF3.910885
aF5.24267
aF4.949629
aF2.742204
aF7.901522
aF6.696427
aF4.442136
aF3.878062
aF2.387812
aF5.984383
aF3.385878
aF6.660729
aF1.242623
aF1.754445
aF2.072562
aF1.774569
aF2.106067
aF2.315333
aF13.308734
aF3.329984
aF5.979295
aF3.064388
aF2.383985
aF3.148323
aF6.024091
aF2.177125
aF4.793013
aF3.039122
aF3.131846
aF1.681816
aF2.907064
aF2.229616
aF5.317033
aF1.467252
aF3.787268
aF5.285648
aF2.162162
aF2.821704
aF3.864959
aF4.108987
aF1.894571
aF3.592889
aF3.747141
aF7.423691
aF5.395261
aF3.336071
aF5.604806
aF4.939575
aa(lp8
F9.161968
aF1.940585
aF2.660842
aF5.059461
aF1.572235
aF2.271007
aF2.062559
aF3.885099
aF4.332945
aF5.57103
aF3.88824
aF2.543566
aF2.313608
aF5.00061
aF5.317668
aF4.515733
aF5.440777
aF3.229692
aF30.673192
aF2.738836
aF5.767509
aF7.87514
aF7.345412
aF10.051442
aF6.23827
aF4.096165
aF3.25229
aF5.229709
aF10.680005
aF1.508844
aF5.331995
aF5.240784
aF3.756505
aF3.9234
aF3.039856
aF24.254636
aF3.42683
aF4.922495
aF11.425765
aF4.661386
aF5.173385
aF6.981158
aF6.267553
aF4.093183
aF5.410967
aF20.802386
aF10.635335
aF13.063705
aF11.962313
aF9.456998
aF4.645646
aF2.43068
aF2.990259
aF3.35483
aF5.211588
aF23.129486
aF3.750814
aF7.449373
aF2.50122
aF4.550739
aF6.393375
aF14.683552
aF2.708584
aF3.87881
aF5.225622
aF2.223476
aF4.45381
aF4.308224
aF3.597145
aF4.141362
aF4.017935
aF7.113237
aF2.372223
aF8.667299
aF6.023736
aF2.379929
aF4.05197
aF11.944952
aF4.167074
aF7.75762
aF2.770961
aF4.585478
aF5.18517
aF17.127915
aF3.234413
aF6.740517
aF6.463634
aF1.706276
aF2.12523
aF3.285897
aF2.918991
aF4.599433
aF5.832229
aF3.983609
aF12.906713
aF3.685149
aF6.95839
aF6.410536
aF8.03435
aF5.592899
aF2.588756
aF3.756505
aF3.744299
aF3.985141
aF7.513822
aF6.128706
aF2.626209
aF2.65625
aF3.284968
aF2.829808
aF4.791171
aF2.969778
aF3.881169
aF9.305078
aF30.514889
aF2.774263
aF6.064131
aF2.788526
aF3.432169
aF2.891681
aF4.446953
aF4.682289
aF18.818397
aF2.562691
aF32.726263
aF2.928385
aF3.391921
aF2.12523
aF4.033097
aF2.554341
aF6.548068
aF3.140586
aF2.900111
aF4.296875
aF7.861176
aF5.57103
aF14.546573
aF22.145923
aF2.515819
aF14.121404
aa.